; Function Attrs: mustprogress nounwind uwtable
define dso_local noundef zeroext range(i16 3, 0) i16 @_ZNK4llvm18TargetLoweringBase24getAtomicMemOperandFlagsERKNS_11InstructionERKNS_10DataLayoutE(ptr noundef nonnull align 8 dereferenceable(408123) %0, ptr noundef nonnull align 8 dereferenceable(72) %1, ptr nocapture noundef nonnull readnone align 8 dereferenceable(512) %2) local_unnamed_addr #0 align 2 {
  %4 = load i8, ptr %1, align 8
  %.not = icmp eq i8 %4, 66
  br i1 %.not, label %7, label %5

5:                                                ; preds = %3
  %6 = icmp eq i8 %4, 65
  tail call void @llvm.assume(i1 %6)
  br label %7

7:                                                ; preds = %3, %5
  %8 = getelementptr inbounds nuw i8, ptr %1, i64 2
  %9 = load i16, ptr %8, align 2
  %10 = and i16 %9, 1
  %.not14 = icmp eq i16 %10, 0
  %spec.select12 = select i1 %.not14, i16 3, i16 7
  %11 = load ptr, ptr %0, align 8
  %12 = getelementptr inbounds i8, ptr %11, i64 88
  %13 = load ptr, ptr %12, align 8
  %14 = tail call noundef zeroext i16 %13(ptr noundef nonnull align 8 dereferenceable(408123) %0, ptr noundef nonnull align 8 dereferenceable(72) %1) #26
  %15 = or i16 %14, %spec.select12
  ret i16 %15
}